target datalayout = "e-m:e-p270:32:32-p271:32:32-p272:64:64-i64:64-i128:128-f80:128-n8:16:32:64-S128"
target triple = "x86_64-pc-linux-gnu"

%"class.std::__cxx11::basic_string" = type { %"struct.std::__cxx11::basic_string<char>::_Alloc_hider", i64, %union.anon }
%"struct.std::__cxx11::basic_string<char>::_Alloc_hider" = type { ptr }
%union.anon = type { i64, [8 x i8] }
%"class.gmx::ColvarsOptions" = type { %"class.gmx::IMdpOptionProvider", i8, %"class.std::__cxx11::basic_string", %"class.std::__cxx11::basic_string", %"class.std::__cxx11::basic_string", %"class.std::__cxx11::basic_string", %"class.std::__cxx11::basic_string", %"class.std::__cxx11::basic_string", %"class.std::__cxx11::basic_string", %"class.std::__cxx11::basic_string", i32, %"class.std::__cxx11::basic_string", %struct.t_atoms, %"class.gmx::ArrayRef", i32, [3 x [3 x float]], %"class.std::vector", %"class.std::map", float, ptr, %"class.std::__cxx11::basic_string" }
%"class.gmx::IMdpOptionProvider" = type { ptr }
%struct.t_atoms = type { i32, ptr, ptr, ptr, ptr, i32, ptr, ptr, i8, i8, i8, i8, i8 }
%"class.gmx::ArrayRef" = type { %"struct.gmx::ArrayRefIter", %"struct.gmx::ArrayRefIter" }
%"struct.gmx::ArrayRefIter" = type { ptr }
%"class.std::vector" = type { %"struct.std::_Vector_base" }
%"struct.std::_Vector_base" = type { %"struct.std::_Vector_base<gmx::BasicVector<float>, std::allocator<gmx::BasicVector<float>>>::_Vector_impl" }
%"struct.std::_Vector_base<gmx::BasicVector<float>, std::allocator<gmx::BasicVector<float>>>::_Vector_impl" = type { %"struct.std::_Vector_base<gmx::BasicVector<float>, std::allocator<gmx::BasicVector<float>>>::_Vector_impl_data" }
%"struct.std::_Vector_base<gmx::BasicVector<float>, std::allocator<gmx::BasicVector<float>>>::_Vector_impl_data" = type { ptr, ptr, ptr }
%"class.std::map" = type { %"class.std::_Rb_tree" }
%"class.std::_Rb_tree" = type { %"struct.std::_Rb_tree<std::__cxx11::basic_string<char>, std::pair<const std::__cxx11::basic_string<char>, std::__cxx11::basic_string<char>>, std::_Select1st<std::pair<const std::__cxx11::basic_string<char>, std::__cxx11::basic_string<char>>>, std::less<std::__cxx11::basic_string<char>>>::_Rb_tree_impl" }
%"struct.std::_Rb_tree<std::__cxx11::basic_string<char>, std::pair<const std::__cxx11::basic_string<char>, std::__cxx11::basic_string<char>>, std::_Select1st<std::pair<const std::__cxx11::basic_string<char>, std::__cxx11::basic_string<char>>>, std::less<std::__cxx11::basic_string<char>>>::_Rb_tree_impl" = type { [8 x i8], %"struct.std::_Rb_tree_header" }
%"struct.std::_Rb_tree_header" = type { %"struct.std::_Rb_tree_node_base", i64 }
%"struct.std::_Rb_tree_node_base" = type { i32, ptr, ptr, ptr }
%"struct.gmx::CoordinatesAndBoxPreprocessed" = type { %"class.gmx::ArrayRefWithPadding", [3 x [3 x float]], i32 }
%"class.gmx::ArrayRefWithPadding" = type { ptr, ptr, ptr }

; Function Attrs: mustprogress nounwind uwtable
define linkonce_odr void @_ZN3gmx12ArrayRefIterIKNS_11BasicVectorIfEEEC2EPS3_(ptr noundef nonnull align 8 dereferenceable(8) %0, ptr noundef %1) unnamed_addr #4 comdat align 2 {
  %3 = alloca ptr, align 8
  %4 = alloca ptr, align 8
  store ptr %0, ptr %3, align 8, !tbaa !452
  store ptr %1, ptr %4, align 8, !tbaa !420
  %5 = load ptr, ptr %3, align 8
  %6 = getelementptr inbounds nuw %"struct.gmx::ArrayRefIter", ptr %5, i32 0, i32 0
  %7 = load ptr, ptr %4, align 8, !tbaa !420
  store ptr %7, ptr %6, align 8, !tbaa !454
  ret void
}

; Function Attrs: inlinehint mustprogress nounwind uwtable
define internal void @_ZL9copy_rvecPKfPf(ptr noundef %0, ptr noundef %1) #1 {
  %3 = alloca ptr, align 8
  %4 = alloca ptr, align 8
  store ptr %0, ptr %3, align 8, !tbaa !450
  store ptr %1, ptr %4, align 8, !tbaa !450
  %5 = load ptr, ptr %3, align 8, !tbaa !450
  %6 = getelementptr inbounds float, ptr %5, i64 0
  %7 = load float, ptr %6, align 4, !tbaa !449
  %8 = load ptr, ptr %4, align 8, !tbaa !450
  %9 = getelementptr inbounds float, ptr %8, i64 0
  store float %7, ptr %9, align 4, !tbaa !449
  %10 = load ptr, ptr %3, align 8, !tbaa !450
  %11 = getelementptr inbounds float, ptr %10, i64 1
  %12 = load float, ptr %11, align 4, !tbaa !449
  %13 = load ptr, ptr %4, align 8, !tbaa !450
  %14 = getelementptr inbounds float, ptr %13, i64 1
  store float %12, ptr %14, align 4, !tbaa !449
  %15 = load ptr, ptr %3, align 8, !tbaa !450
  %16 = getelementptr inbounds float, ptr %15, i64 2
  %17 = load float, ptr %16, align 4, !tbaa !449
  %18 = load ptr, ptr %4, align 8, !tbaa !450
  %19 = getelementptr inbounds float, ptr %18, i64 2
  store float %17, ptr %19, align 4, !tbaa !449
  ret void
}

; Function Attrs: mustprogress nounwind uwtable
define linkonce_odr void @_ZN3gmx8ArrayRefIKNS_11BasicVectorIfEEEC2EPS3_S5_(ptr noundef nonnull align 8 dereferenceable(16) %0, ptr noundef %1, ptr noundef %2) unnamed_addr #4 comdat align 2 {
  %4 = alloca ptr, align 8
  %5 = alloca ptr, align 8
  %6 = alloca ptr, align 8
  store ptr %0, ptr %4, align 8, !tbaa !424
  store ptr %1, ptr %5, align 8, !tbaa !420
  store ptr %2, ptr %6, align 8, !tbaa !420
  %7 = load ptr, ptr %4, align 8
  %8 = getelementptr inbounds nuw %"class.gmx::ArrayRef", ptr %7, i32 0, i32 0
  %9 = load ptr, ptr %5, align 8, !tbaa !420
  call void @_ZN3gmx12ArrayRefIterIKNS_11BasicVectorIfEEEC2EPS3_(ptr noundef nonnull align 8 dereferenceable(8) %8, ptr noundef %9) #5
  %10 = getelementptr inbounds nuw %"class.gmx::ArrayRef", ptr %7, i32 0, i32 1
  %11 = load ptr, ptr %6, align 8, !tbaa !420
  call void @_ZN3gmx12ArrayRefIterIKNS_11BasicVectorIfEEEC2EPS3_(ptr noundef nonnull align 8 dereferenceable(8) %10, ptr noundef %11) #5
  ret void
}

; Function Attrs: inlinehint mustprogress uwtable
define internal void @_ZL8copy_matPA3_KfPA3_f(ptr noundef %0, ptr noundef %1) #8 {
  %3 = alloca ptr, align 8
  %4 = alloca ptr, align 8
  store ptr %0, ptr %3, align 8, !tbaa !450
  store ptr %1, ptr %4, align 8, !tbaa !450
  %5 = load ptr, ptr %3, align 8, !tbaa !450
  %6 = getelementptr inbounds [3 x float], ptr %5, i64 0
  %7 = getelementptr inbounds [3 x float], ptr %6, i64 0, i64 0
  %8 = load ptr, ptr %4, align 8, !tbaa !450
  %9 = getelementptr inbounds [3 x float], ptr %8, i64 0
  %10 = getelementptr inbounds [3 x float], ptr %9, i64 0, i64 0
  call void @_ZL9copy_rvecPKfPf(ptr noundef %7, ptr noundef %10)
  %11 = load ptr, ptr %3, align 8, !tbaa !450
  %12 = getelementptr inbounds [3 x float], ptr %11, i64 1
  %13 = getelementptr inbounds [3 x float], ptr %12, i64 0, i64 0
  %14 = load ptr, ptr %4, align 8, !tbaa !450
  %15 = getelementptr inbounds [3 x float], ptr %14, i64 1
  %16 = getelementptr inbounds [3 x float], ptr %15, i64 0, i64 0
  call void @_ZL9copy_rvecPKfPf(ptr noundef %13, ptr noundef %16)
  %17 = load ptr, ptr %3, align 8, !tbaa !450
  %18 = getelementptr inbounds [3 x float], ptr %17, i64 2
  %19 = getelementptr inbounds [3 x float], ptr %18, i64 0, i64 0
  %20 = load ptr, ptr %4, align 8, !tbaa !450
  %21 = getelementptr inbounds [3 x float], ptr %20, i64 2
  %22 = getelementptr inbounds [3 x float], ptr %21, i64 0, i64 0
  call void @_ZL9copy_rvecPKfPf(ptr noundef %19, ptr noundef %22)
  ret void
}

; Function Attrs: mustprogress uwtable
define linkonce_odr { ptr, ptr } @_ZNK3gmx19ArrayRefWithPaddingINS_11BasicVectorIfEEE21unpaddedConstArrayRefEv(ptr noundef nonnull align 8 dereferenceable(24) %0) #0 comdat align 2 {
  %2 = alloca %"class.gmx::ArrayRef", align 8
  %3 = alloca ptr, align 8
  store ptr %0, ptr %3, align 8, !tbaa !714
  %4 = load ptr, ptr %3, align 8
  %5 = getelementptr inbounds nuw %"class.gmx::ArrayRefWithPadding", ptr %4, i32 0, i32 0
  %6 = load ptr, ptr %5, align 8, !tbaa !716
  %7 = getelementptr inbounds nuw %"class.gmx::ArrayRefWithPadding", ptr %4, i32 0, i32 1
  %8 = load ptr, ptr %7, align 8, !tbaa !717
  call void @_ZN3gmx8ArrayRefIKNS_11BasicVectorIfEEEC2EPS3_S5_(ptr noundef nonnull align 8 dereferenceable(16) %2, ptr noundef %6, ptr noundef %8)
  %9 = load { ptr, ptr }, ptr %2, align 8
  ret { ptr, ptr } %9
}

; Function Attrs: mustprogress uwtable
define void @_ZN3gmx14ColvarsOptions18processCoordinatesERKNS_29CoordinatesAndBoxPreprocessedE(ptr noundef nonnull align 8 dereferenceable(560) %0, ptr noundef nonnull align 8 dereferenceable(64) %1) #0 align 2 {
  %3 = alloca ptr, align 8
  %4 = alloca ptr, align 8
  %5 = alloca %"class.gmx::ArrayRef", align 8
  store ptr %0, ptr %3, align 8, !tbaa !4
  store ptr %1, ptr %4, align 8, !tbaa !709
  %6 = load ptr, ptr %3, align 8
  call void @llvm.lifetime.start.p0(i64 16, ptr %5) #5
  %7 = load ptr, ptr %4, align 8, !tbaa !709
  %8 = getelementptr inbounds nuw %"struct.gmx::CoordinatesAndBoxPreprocessed", ptr %7, i32 0, i32 0
  %9 = call { ptr, ptr } @_ZNK3gmx19ArrayRefWithPaddingINS_11BasicVectorIfEEE21unpaddedConstArrayRefEv(ptr noundef nonnull align 8 dereferenceable(24) %8)
  %10 = getelementptr inbounds nuw { ptr, ptr }, ptr %5, i32 0, i32 0
  %11 = extractvalue { ptr, ptr } %9, 0
  store ptr %11, ptr %10, align 8
  %12 = getelementptr inbounds nuw { ptr, ptr }, ptr %5, i32 0, i32 1
  %13 = extractvalue { ptr, ptr } %9, 1
  store ptr %13, ptr %12, align 8
  %14 = getelementptr inbounds nuw %"class.gmx::ColvarsOptions", ptr %6, i32 0, i32 13
  call void @llvm.memcpy.p0.p0.i64(ptr align 8 %14, ptr align 8 %5, i64 16, i1 false)
  call void @llvm.lifetime.end.p0(i64 16, ptr %5) #5
  %15 = load ptr, ptr %4, align 8, !tbaa !709
  %16 = getelementptr inbounds nuw %"struct.gmx::CoordinatesAndBoxPreprocessed", ptr %15, i32 0, i32 2
  %17 = load i32, ptr %16, align 4, !tbaa !711
  %18 = getelementptr inbounds nuw %"class.gmx::ColvarsOptions", ptr %6, i32 0, i32 14
  store i32 %17, ptr %18, align 8, !tbaa !414
  %19 = load ptr, ptr %4, align 8, !tbaa !709
  %20 = getelementptr inbounds nuw %"struct.gmx::CoordinatesAndBoxPreprocessed", ptr %19, i32 0, i32 1
  %21 = getelementptr inbounds [3 x [3 x float]], ptr %20, i64 0, i64 0
  %22 = getelementptr inbounds nuw %"class.gmx::ColvarsOptions", ptr %6, i32 0, i32 15
  %23 = getelementptr inbounds [3 x [3 x float]], ptr %22, i64 0, i64 0
  call void @_ZL8copy_matPA3_KfPA3_f(ptr noundef %21, ptr noundef %23)
  ret void
}