; Function Attrs: mustprogress nofree norecurse nosync nounwind willreturn memory(argmem: readwrite) uwtable
define void @_ZN3gmx14ColvarsOptions18processCoordinatesERKNS_29CoordinatesAndBoxPreprocessedE(ptr noundef nonnull writeonly align 8 captures(none) dereferenceable(560) initializes((384, 440)) %0, ptr noundef nonnull readonly align 8 captures(none) dereferenceable(64) %1) local_unnamed_addr #21 align 2 {
  %3 = load ptr, ptr %1, align 8, !tbaa !499
  %4 = getelementptr inbounds nuw i8, ptr %1, i64 8
  %5 = load ptr, ptr %4, align 8, !tbaa !501
  %6 = getelementptr inbounds nuw i8, ptr %0, i64 384
  store ptr %3, ptr %6, align 8
  %.sroa.4.0..sroa_idx = getelementptr inbounds nuw i8, ptr %0, i64 392
  store ptr %5, ptr %.sroa.4.0..sroa_idx, align 8
  %7 = getelementptr inbounds nuw i8, ptr %1, i64 60
  %8 = load i32, ptr %7, align 4, !tbaa !502
  %9 = getelementptr inbounds nuw i8, ptr %0, i64 400
  store i32 %8, ptr %9, align 8, !tbaa !303
  %10 = getelementptr inbounds nuw i8, ptr %1, i64 24
  %11 = getelementptr inbounds nuw i8, ptr %0, i64 404
  %12 = load float, ptr %10, align 8, !tbaa !326
  store float %12, ptr %11, align 4, !tbaa !326
  %13 = getelementptr inbounds nuw i8, ptr %1, i64 28
  %14 = load float, ptr %13, align 4, !tbaa !326
  %15 = getelementptr inbounds nuw i8, ptr %0, i64 408
  store float %14, ptr %15, align 8, !tbaa !326
  %16 = getelementptr inbounds nuw i8, ptr %1, i64 32
  %17 = load float, ptr %16, align 8, !tbaa !326
  %18 = getelementptr inbounds nuw i8, ptr %0, i64 412
  store float %17, ptr %18, align 4, !tbaa !326
  %19 = getelementptr inbounds nuw i8, ptr %1, i64 36
  %20 = getelementptr inbounds nuw i8, ptr %0, i64 416
  %21 = load float, ptr %19, align 4, !tbaa !326
  store float %21, ptr %20, align 8, !tbaa !326
  %22 = getelementptr inbounds nuw i8, ptr %1, i64 40
  %23 = load float, ptr %22, align 8, !tbaa !326
  %24 = getelementptr inbounds nuw i8, ptr %0, i64 420
  store float %23, ptr %24, align 4, !tbaa !326
  %25 = getelementptr inbounds nuw i8, ptr %1, i64 44
  %26 = load float, ptr %25, align 4, !tbaa !326
  %27 = getelementptr inbounds nuw i8, ptr %0, i64 424
  store float %26, ptr %27, align 8, !tbaa !326
  %28 = getelementptr inbounds nuw i8, ptr %1, i64 48
  %29 = getelementptr inbounds nuw i8, ptr %0, i64 428
  %30 = load float, ptr %28, align 8, !tbaa !326
  store float %30, ptr %29, align 4, !tbaa !326
  %31 = getelementptr inbounds nuw i8, ptr %1, i64 52
  %32 = load float, ptr %31, align 4, !tbaa !326
  %33 = getelementptr inbounds nuw i8, ptr %0, i64 432
  store float %32, ptr %33, align 8, !tbaa !326
  %34 = getelementptr inbounds nuw i8, ptr %1, i64 56
  %35 = load float, ptr %34, align 8, !tbaa !326
  %36 = getelementptr inbounds nuw i8, ptr %0, i64 436
  store float %35, ptr %36, align 4, !tbaa !326
  ret void
}